; Function Attrs: mustprogress nofree norecurse nosync nounwind willreturn memory(read, inaccessiblemem: none) uwtable
define noundef i32 @_ZNK5arrow7compute16RowTableMetadata18num_varbinary_colsEv(ptr noundef nonnull readonly align 8 captures(none) dereferenceable(120) %this) local_unnamed_addr #0 align 2 {
entry:
  %column_metadatas = getelementptr inbounds nuw i8, ptr %this, i64 24
  %0 = load ptr, ptr %column_metadatas, align 8
  %_M_finish.i = getelementptr inbounds nuw i8, ptr %this, i64 32
  %1 = load ptr, ptr %_M_finish.i, align 8
  %cmp.i.not5 = icmp eq ptr %0, %1
  br i1 %cmp.i.not5, label %for.end, label %for.body

for.body:                                         ; preds = %entry, %for.body
  %result.07 = phi i32 [ %spec.select, %for.body ], [ 0, %entry ]
  %__begin2.sroa.0.06 = phi ptr [ %incdec.ptr.i, %for.body ], [ %0, %entry ]
  %column_metadata.sroa.0.0.copyload = load i8, ptr %__begin2.sroa.0.06, align 4
  %2 = and i8 %column_metadata.sroa.0.0.copyload, 1
  %3 = xor i8 %2, 1
  %inc = zext nneg i8 %3 to i32
  %spec.select = add i32 %result.07, %inc
  %incdec.ptr.i = getelementptr inbounds nuw i8, ptr %__begin2.sroa.0.06, i64 8
  %cmp.i.not = icmp eq ptr %incdec.ptr.i, %1
  br i1 %cmp.i.not, label %for.end, label %for.body

for.end:                                          ; preds = %for.body, %entry
  %result.0.lcssa = phi i32 [ 0, %entry ], [ %spec.select, %for.body ]
  ret i32 %result.0.lcssa
}